; Function Attrs: mustprogress uwtable
define noundef double @_ZNK8QuantLib11BondForward17cleanForwardPriceEv(ptr noundef nonnull align 8 dereferenceable(240) %this) local_unnamed_addr #9 align 2 {
entry:
  %vtable = load ptr, ptr %this, align 8, !tbaa !33
  %vfn = getelementptr inbounds i8, ptr %vtable, i64 96
  %0 = load ptr, ptr %vfn, align 8
  %call = tail call noundef double %0(ptr noundef nonnull align 8 dereferenceable(224) %this)
  %bond_ = getelementptr inbounds nuw i8, ptr %this, i64 224
  %1 = load ptr, ptr %bond_, align 8, !tbaa !74
  %cmp.not.i = icmp eq ptr %1, null
  br i1 %cmp.not.i, label %cond.false.i, label %_ZNK5boost10shared_ptrIN8QuantLib4BondEEptEv.exit, !prof !88

cond.false.i:                                     ; preds = %entry
  tail call void @_ZN5boost16assertion_failedEPKcS1_S1_l(ptr noundef nonnull @.str.9, ptr noundef nonnull @__PRETTY_FUNCTION__._ZNK5boost10shared_ptrIN8QuantLib4BondEEptEv, ptr noundef nonnull @.str.10, i64 noundef 784)
  %.pre.i = load ptr, ptr %bond_, align 8, !tbaa !74
  br label %_ZNK5boost10shared_ptrIN8QuantLib4BondEEptEv.exit

_ZNK5boost10shared_ptrIN8QuantLib4BondEEptEv.exit: ; preds = %entry, %cond.false.i
  %2 = phi ptr [ %1, %entry ], [ %.pre.i, %cond.false.i ]
  %maturityDate_ = getelementptr inbounds nuw i8, ptr %this, i64 184
  %agg.tmp.sroa.0.0.copyload = load i64, ptr %maturityDate_, align 8, !tbaa !41
  %vtable3 = load ptr, ptr %2, align 8, !tbaa !33
  %vfn4 = getelementptr inbounds i8, ptr %vtable3, i64 88
  %3 = load ptr, ptr %vfn4, align 8
  %call5 = tail call noundef double %3(ptr noundef nonnull align 8 dereferenceable(248) %2, i64 %agg.tmp.sroa.0.0.copyload)
  %sub = fsub double %call, %call5
  ret double %sub
}